target datalayout = "e-m:e-p270:32:32-p271:32:32-p272:64:64-i64:64-i128:128-f80:128-n8:16:32:64-S128"
target triple = "x86_64-pc-linux-gnu"

%struct.JLSState = type { i32, i32, i32, [367 x i32], [367 x i32], [365 x i32], [367 x i32], i32, i32, i32, i32, i32, i32, i32, i32, [4 x i32] }

; Function Attrs: inlinehint nounwind uwtable
define internal void @ff_jpegls_downscale_state(ptr noundef %0, i32 noundef %1) #2 {
  %3 = alloca ptr, align 8
  %4 = alloca i32, align 4
  store ptr %0, ptr %3, align 8, !tbaa !69
  store i32 %1, ptr %4, align 4, !tbaa !9
  %5 = load ptr, ptr %3, align 8, !tbaa !69
  %6 = getelementptr inbounds nuw %struct.JLSState, ptr %5, i32 0, i32 6
  %7 = load i32, ptr %4, align 4, !tbaa !9
  %8 = sext i32 %7 to i64
  %9 = getelementptr inbounds [367 x i32], ptr %6, i64 0, i64 %8
  %10 = load i32, ptr %9, align 4, !tbaa !9
  %11 = load ptr, ptr %3, align 8, !tbaa !69
  %12 = getelementptr inbounds nuw %struct.JLSState, ptr %11, i32 0, i32 8
  %13 = load i32, ptr %12, align 4, !tbaa !78
  %14 = icmp eq i32 %10, %13
  br i1 %14, label %15, label %37

15:                                               ; preds = %2
  %16 = load ptr, ptr %3, align 8, !tbaa !69
  %17 = getelementptr inbounds nuw %struct.JLSState, ptr %16, i32 0, i32 3
  %18 = load i32, ptr %4, align 4, !tbaa !9
  %19 = sext i32 %18 to i64
  %20 = getelementptr inbounds [367 x i32], ptr %17, i64 0, i64 %19
  %21 = load i32, ptr %20, align 4, !tbaa !9
  %22 = ashr i32 %21, 1
  store i32 %22, ptr %20, align 4, !tbaa !9
  %23 = load ptr, ptr %3, align 8, !tbaa !69
  %24 = getelementptr inbounds nuw %struct.JLSState, ptr %23, i32 0, i32 4
  %25 = load i32, ptr %4, align 4, !tbaa !9
  %26 = sext i32 %25 to i64
  %27 = getelementptr inbounds [367 x i32], ptr %24, i64 0, i64 %26
  %28 = load i32, ptr %27, align 4, !tbaa !9
  %29 = ashr i32 %28, 1
  store i32 %29, ptr %27, align 4, !tbaa !9
  %30 = load ptr, ptr %3, align 8, !tbaa !69
  %31 = getelementptr inbounds nuw %struct.JLSState, ptr %30, i32 0, i32 6
  %32 = load i32, ptr %4, align 4, !tbaa !9
  %33 = sext i32 %32 to i64
  %34 = getelementptr inbounds [367 x i32], ptr %31, i64 0, i64 %33
  %35 = load i32, ptr %34, align 4, !tbaa !9
  %36 = ashr i32 %35, 1
  store i32 %36, ptr %34, align 4, !tbaa !9
  br label %37

37:                                               ; preds = %15, %2
  %38 = load ptr, ptr %3, align 8, !tbaa !69
  %39 = getelementptr inbounds nuw %struct.JLSState, ptr %38, i32 0, i32 6
  %40 = load i32, ptr %4, align 4, !tbaa !9
  %41 = sext i32 %40 to i64
  %42 = getelementptr inbounds [367 x i32], ptr %39, i64 0, i64 %41
  %43 = load i32, ptr %42, align 4, !tbaa !9
  %44 = add nsw i32 %43, 1
  store i32 %44, ptr %42, align 4, !tbaa !9
  ret void
}

; Function Attrs: inlinehint nounwind uwtable
define internal i32 @ff_jpegls_update_state_regular(ptr noundef %0, i32 noundef %1, i32 noundef %2) #2 {
  %4 = alloca i32, align 4
  %5 = alloca ptr, align 8
  %6 = alloca i32, align 4
  %7 = alloca i32, align 4
  store ptr %0, ptr %5, align 8, !tbaa !69
  store i32 %1, ptr %6, align 4, !tbaa !9
  store i32 %2, ptr %7, align 4, !tbaa !9
  %8 = load i32, ptr %7, align 4, !tbaa !9
  %9 = icmp sge i32 %8, 0
  br i1 %9, label %10, label %12

10:                                               ; preds = %3
  %11 = load i32, ptr %7, align 4, !tbaa !9
  br label %15

12:                                               ; preds = %3
  %13 = load i32, ptr %7, align 4, !tbaa !9
  %14 = sub nsw i32 0, %13
  br label %15

15:                                               ; preds = %12, %10
  %16 = phi i32 [ %11, %10 ], [ %14, %12 ]
  %17 = icmp sgt i32 %16, 65535
  br i1 %17, label %36, label %18

18:                                               ; preds = %15
  %19 = load i32, ptr %7, align 4, !tbaa !9
  %20 = icmp sge i32 %19, 0
  br i1 %20, label %21, label %23

21:                                               ; preds = %18
  %22 = load i32, ptr %7, align 4, !tbaa !9
  br label %26

23:                                               ; preds = %18
  %24 = load i32, ptr %7, align 4, !tbaa !9
  %25 = sub nsw i32 0, %24
  br label %26

26:                                               ; preds = %23, %21
  %27 = phi i32 [ %22, %21 ], [ %25, %23 ]
  %28 = load ptr, ptr %5, align 8, !tbaa !69
  %29 = getelementptr inbounds nuw %struct.JLSState, ptr %28, i32 0, i32 3
  %30 = load i32, ptr %6, align 4, !tbaa !9
  %31 = sext i32 %30 to i64
  %32 = getelementptr inbounds [367 x i32], ptr %29, i64 0, i64 %31
  %33 = load i32, ptr %32, align 4, !tbaa !9
  %34 = sub nsw i32 2147483647, %33
  %35 = icmp sgt i32 %27, %34
  br i1 %35, label %36, label %37

36:                                               ; preds = %26, %15
  store i32 -65536, ptr %4, align 4
  br label %214

37:                                               ; preds = %26
  %38 = load i32, ptr %7, align 4, !tbaa !9
  %39 = icmp sge i32 %38, 0
  br i1 %39, label %40, label %42

40:                                               ; preds = %37
  %41 = load i32, ptr %7, align 4, !tbaa !9
  br label %45

42:                                               ; preds = %37
  %43 = load i32, ptr %7, align 4, !tbaa !9
  %44 = sub nsw i32 0, %43
  br label %45

45:                                               ; preds = %42, %40
  %46 = phi i32 [ %41, %40 ], [ %44, %42 ]
  %47 = load ptr, ptr %5, align 8, !tbaa !69
  %48 = getelementptr inbounds nuw %struct.JLSState, ptr %47, i32 0, i32 3
  %49 = load i32, ptr %6, align 4, !tbaa !9
  %50 = sext i32 %49 to i64
  %51 = getelementptr inbounds [367 x i32], ptr %48, i64 0, i64 %50
  %52 = load i32, ptr %51, align 4, !tbaa !9
  %53 = add nsw i32 %52, %46
  store i32 %53, ptr %51, align 4, !tbaa !9
  %54 = load ptr, ptr %5, align 8, !tbaa !69
  %55 = getelementptr inbounds nuw %struct.JLSState, ptr %54, i32 0, i32 14
  %56 = load i32, ptr %55, align 4, !tbaa !109
  %57 = load i32, ptr %7, align 4, !tbaa !9
  %58 = mul nsw i32 %57, %56
  store i32 %58, ptr %7, align 4, !tbaa !9
  %59 = load i32, ptr %7, align 4, !tbaa !9
  %60 = load ptr, ptr %5, align 8, !tbaa !69
  %61 = getelementptr inbounds nuw %struct.JLSState, ptr %60, i32 0, i32 4
  %62 = load i32, ptr %6, align 4, !tbaa !9
  %63 = sext i32 %62 to i64
  %64 = getelementptr inbounds [367 x i32], ptr %61, i64 0, i64 %63
  %65 = load i32, ptr %64, align 4, !tbaa !9
  %66 = add nsw i32 %65, %59
  store i32 %66, ptr %64, align 4, !tbaa !9
  %67 = load ptr, ptr %5, align 8, !tbaa !69
  %68 = load i32, ptr %6, align 4, !tbaa !9
  call void @ff_jpegls_downscale_state(ptr noundef %67, i32 noundef %68)
  %69 = load ptr, ptr %5, align 8, !tbaa !69
  %70 = getelementptr inbounds nuw %struct.JLSState, ptr %69, i32 0, i32 4
  %71 = load i32, ptr %6, align 4, !tbaa !9
  %72 = sext i32 %71 to i64
  %73 = getelementptr inbounds [367 x i32], ptr %70, i64 0, i64 %72
  %74 = load i32, ptr %73, align 4, !tbaa !9
  %75 = load ptr, ptr %5, align 8, !tbaa !69
  %76 = getelementptr inbounds nuw %struct.JLSState, ptr %75, i32 0, i32 6
  %77 = load i32, ptr %6, align 4, !tbaa !9
  %78 = sext i32 %77 to i64
  %79 = getelementptr inbounds [367 x i32], ptr %76, i64 0, i64 %78
  %80 = load i32, ptr %79, align 4, !tbaa !9
  %81 = sub nsw i32 0, %80
  %82 = icmp sle i32 %74, %81
  br i1 %82, label %83, label %150

83:                                               ; preds = %45
  %84 = load ptr, ptr %5, align 8, !tbaa !69
  %85 = getelementptr inbounds nuw %struct.JLSState, ptr %84, i32 0, i32 4
  %86 = load i32, ptr %6, align 4, !tbaa !9
  %87 = sext i32 %86 to i64
  %88 = getelementptr inbounds [367 x i32], ptr %85, i64 0, i64 %87
  %89 = load i32, ptr %88, align 4, !tbaa !9
  %90 = load ptr, ptr %5, align 8, !tbaa !69
  %91 = getelementptr inbounds nuw %struct.JLSState, ptr %90, i32 0, i32 6
  %92 = load i32, ptr %6, align 4, !tbaa !9
  %93 = sext i32 %92 to i64
  %94 = getelementptr inbounds [367 x i32], ptr %91, i64 0, i64 %93
  %95 = load i32, ptr %94, align 4, !tbaa !9
  %96 = add nsw i32 %89, %95
  %97 = load ptr, ptr %5, align 8, !tbaa !69
  %98 = getelementptr inbounds nuw %struct.JLSState, ptr %97, i32 0, i32 6
  %99 = load i32, ptr %6, align 4, !tbaa !9
  %100 = sext i32 %99 to i64
  %101 = getelementptr inbounds [367 x i32], ptr %98, i64 0, i64 %100
  %102 = load i32, ptr %101, align 4, !tbaa !9
  %103 = sub nsw i32 1, %102
  %104 = icmp sgt i32 %96, %103
  br i1 %104, label %105, label %119

105:                                              ; preds = %83
  %106 = load ptr, ptr %5, align 8, !tbaa !69
  %107 = getelementptr inbounds nuw %struct.JLSState, ptr %106, i32 0, i32 4
  %108 = load i32, ptr %6, align 4, !tbaa !9
  %109 = sext i32 %108 to i64
  %110 = getelementptr inbounds [367 x i32], ptr %107, i64 0, i64 %109
  %111 = load i32, ptr %110, align 4, !tbaa !9
  %112 = load ptr, ptr %5, align 8, !tbaa !69
  %113 = getelementptr inbounds nuw %struct.JLSState, ptr %112, i32 0, i32 6
  %114 = load i32, ptr %6, align 4, !tbaa !9
  %115 = sext i32 %114 to i64
  %116 = getelementptr inbounds [367 x i32], ptr %113, i64 0, i64 %115
  %117 = load i32, ptr %116, align 4, !tbaa !9
  %118 = add nsw i32 %111, %117
  br label %127

119:                                              ; preds = %83
  %120 = load ptr, ptr %5, align 8, !tbaa !69
  %121 = getelementptr inbounds nuw %struct.JLSState, ptr %120, i32 0, i32 6
  %122 = load i32, ptr %6, align 4, !tbaa !9
  %123 = sext i32 %122 to i64
  %124 = getelementptr inbounds [367 x i32], ptr %121, i64 0, i64 %123
  %125 = load i32, ptr %124, align 4, !tbaa !9
  %126 = sub nsw i32 1, %125
  br label %127

127:                                              ; preds = %119, %105
  %128 = phi i32 [ %118, %105 ], [ %126, %119 ]
  %129 = load ptr, ptr %5, align 8, !tbaa !69
  %130 = getelementptr inbounds nuw %struct.JLSState, ptr %129, i32 0, i32 4
  %131 = load i32, ptr %6, align 4, !tbaa !9
  %132 = sext i32 %131 to i64
  %133 = getelementptr inbounds [367 x i32], ptr %130, i64 0, i64 %132
  store i32 %128, ptr %133, align 4, !tbaa !9
  %134 = load ptr, ptr %5, align 8, !tbaa !69
  %135 = getelementptr inbounds nuw %struct.JLSState, ptr %134, i32 0, i32 5
  %136 = load i32, ptr %6, align 4, !tbaa !9
  %137 = sext i32 %136 to i64
  %138 = getelementptr inbounds [365 x i32], ptr %135, i64 0, i64 %137
  %139 = load i32, ptr %138, align 4, !tbaa !9
  %140 = icmp sgt i32 %139, -128
  br i1 %140, label %141, label %149

141:                                              ; preds = %127
  %142 = load ptr, ptr %5, align 8, !tbaa !69
  %143 = getelementptr inbounds nuw %struct.JLSState, ptr %142, i32 0, i32 5
  %144 = load i32, ptr %6, align 4, !tbaa !9
  %145 = sext i32 %144 to i64
  %146 = getelementptr inbounds [365 x i32], ptr %143, i64 0, i64 %145
  %147 = load i32, ptr %146, align 4, !tbaa !9
  %148 = add nsw i32 %147, -1
  store i32 %148, ptr %146, align 4, !tbaa !9
  br label %149

149:                                              ; preds = %141, %127
  br label %212

150:                                              ; preds = %45
  %151 = load ptr, ptr %5, align 8, !tbaa !69
  %152 = getelementptr inbounds nuw %struct.JLSState, ptr %151, i32 0, i32 4
  %153 = load i32, ptr %6, align 4, !tbaa !9
  %154 = sext i32 %153 to i64
  %155 = getelementptr inbounds [367 x i32], ptr %152, i64 0, i64 %154
  %156 = load i32, ptr %155, align 4, !tbaa !9
  %157 = icmp sgt i32 %156, 0
  br i1 %157, label %158, label %211

158:                                              ; preds = %150
  %159 = load ptr, ptr %5, align 8, !tbaa !69
  %160 = getelementptr inbounds nuw %struct.JLSState, ptr %159, i32 0, i32 4
  %161 = load i32, ptr %6, align 4, !tbaa !9
  %162 = sext i32 %161 to i64
  %163 = getelementptr inbounds [367 x i32], ptr %160, i64 0, i64 %162
  %164 = load i32, ptr %163, align 4, !tbaa !9
  %165 = load ptr, ptr %5, align 8, !tbaa !69
  %166 = getelementptr inbounds nuw %struct.JLSState, ptr %165, i32 0, i32 6
  %167 = load i32, ptr %6, align 4, !tbaa !9
  %168 = sext i32 %167 to i64
  %169 = getelementptr inbounds [367 x i32], ptr %166, i64 0, i64 %168
  %170 = load i32, ptr %169, align 4, !tbaa !9
  %171 = sub nsw i32 %164, %170
  %172 = icmp sgt i32 %171, 0
  br i1 %172, label %173, label %174

173:                                              ; preds = %158
  br label %188

174:                                              ; preds = %158
  %175 = load ptr, ptr %5, align 8, !tbaa !69
  %176 = getelementptr inbounds nuw %struct.JLSState, ptr %175, i32 0, i32 4
  %177 = load i32, ptr %6, align 4, !tbaa !9
  %178 = sext i32 %177 to i64
  %179 = getelementptr inbounds [367 x i32], ptr %176, i64 0, i64 %178
  %180 = load i32, ptr %179, align 4, !tbaa !9
  %181 = load ptr, ptr %5, align 8, !tbaa !69
  %182 = getelementptr inbounds nuw %struct.JLSState, ptr %181, i32 0, i32 6
  %183 = load i32, ptr %6, align 4, !tbaa !9
  %184 = sext i32 %183 to i64
  %185 = getelementptr inbounds [367 x i32], ptr %182, i64 0, i64 %184
  %186 = load i32, ptr %185, align 4, !tbaa !9
  %187 = sub nsw i32 %180, %186
  br label %188

188:                                              ; preds = %174, %173
  %189 = phi i32 [ 0, %173 ], [ %187, %174 ]
  %190 = load ptr, ptr %5, align 8, !tbaa !69
  %191 = getelementptr inbounds nuw %struct.JLSState, ptr %190, i32 0, i32 4
  %192 = load i32, ptr %6, align 4, !tbaa !9
  %193 = sext i32 %192 to i64
  %194 = getelementptr inbounds [367 x i32], ptr %191, i64 0, i64 %193
  store i32 %189, ptr %194, align 4, !tbaa !9
  %195 = load ptr, ptr %5, align 8, !tbaa !69
  %196 = getelementptr inbounds nuw %struct.JLSState, ptr %195, i32 0, i32 5
  %197 = load i32, ptr %6, align 4, !tbaa !9
  %198 = sext i32 %197 to i64
  %199 = getelementptr inbounds [365 x i32], ptr %196, i64 0, i64 %198
  %200 = load i32, ptr %199, align 4, !tbaa !9
  %201 = icmp slt i32 %200, 127
  br i1 %201, label %202, label %210

202:                                              ; preds = %188
  %203 = load ptr, ptr %5, align 8, !tbaa !69
  %204 = getelementptr inbounds nuw %struct.JLSState, ptr %203, i32 0, i32 5
  %205 = load i32, ptr %6, align 4, !tbaa !9
  %206 = sext i32 %205 to i64
  %207 = getelementptr inbounds [365 x i32], ptr %204, i64 0, i64 %206
  %208 = load i32, ptr %207, align 4, !tbaa !9
  %209 = add nsw i32 %208, 1
  store i32 %209, ptr %207, align 4, !tbaa !9
  br label %210

210:                                              ; preds = %202, %188
  br label %211

211:                                              ; preds = %210, %150
  br label %212

212:                                              ; preds = %211, %149
  %213 = load i32, ptr %7, align 4, !tbaa !9
  store i32 %213, ptr %4, align 4
  br label %214

214:                                              ; preds = %212, %36
  %215 = load i32, ptr %4, align 4
  ret i32 %215
}

; Function Attrs: inlinehint nounwind uwtable
define internal i32 @ls_get_code_regular(ptr noundef %0, ptr noundef %1, i32 noundef %2) #2 {
  %4 = alloca ptr, align 8
  %5 = alloca ptr, align 8
  %6 = alloca i32, align 4
  %7 = alloca i32, align 4
  %8 = alloca i32, align 4
  store ptr %0, ptr %4, align 8, !tbaa !63
  store ptr %1, ptr %5, align 8, !tbaa !69
  store i32 %2, ptr %6, align 4, !tbaa !9
  call void @llvm.lifetime.start.p0(i64 4, ptr %7) #8
  call void @llvm.lifetime.start.p0(i64 4, ptr %8) #8
  store i32 0, ptr %7, align 4, !tbaa !9
  br label %9

9:                                                ; preds = %26, %3
  %10 = load ptr, ptr %5, align 8, !tbaa !69
  %11 = getelementptr inbounds nuw %struct.JLSState, ptr %10, i32 0, i32 6
  %12 = load i32, ptr %6, align 4, !tbaa !9
  %13 = sext i32 %12 to i64
  %14 = getelementptr inbounds [367 x i32], ptr %11, i64 0, i64 %13
  %15 = load i32, ptr %14, align 4, !tbaa !9
  %16 = load i32, ptr %7, align 4, !tbaa !9
  %17 = shl i32 %15, %16
  %18 = load ptr, ptr %5, align 8, !tbaa !69
  %19 = getelementptr inbounds nuw %struct.JLSState, ptr %18, i32 0, i32 3
  %20 = load i32, ptr %6, align 4, !tbaa !9
  %21 = sext i32 %20 to i64
  %22 = getelementptr inbounds [367 x i32], ptr %19, i64 0, i64 %21
  %23 = load i32, ptr %22, align 4, !tbaa !9
  %24 = icmp ult i32 %17, %23
  br i1 %24, label %25, label %29

25:                                               ; preds = %9
  br label %26

26:                                               ; preds = %25
  %27 = load i32, ptr %7, align 4, !tbaa !9
  %28 = add nsw i32 %27, 1
  store i32 %28, ptr %7, align 4, !tbaa !9
  br label %9, !llvm.loop !112

29:                                               ; preds = %9
  %30 = load ptr, ptr %4, align 8, !tbaa !63
  %31 = load i32, ptr %7, align 4, !tbaa !9
  %32 = load ptr, ptr %5, align 8, !tbaa !69
  %33 = getelementptr inbounds nuw %struct.JLSState, ptr %32, i32 0, i32 7
  %34 = load i32, ptr %33, align 4, !tbaa !81
  %35 = load ptr, ptr %5, align 8, !tbaa !69
  %36 = getelementptr inbounds nuw %struct.JLSState, ptr %35, i32 0, i32 10
  %37 = load i32, ptr %36, align 4, !tbaa !82
  %38 = call i32 @get_ur_golomb_jpegls(ptr noundef %30, i32 noundef %31, i32 noundef %34, i32 noundef %37)
  store i32 %38, ptr %8, align 4, !tbaa !9
  %39 = load i32, ptr %8, align 4, !tbaa !9
  %40 = and i32 %39, 1
  %41 = icmp ne i32 %40, 0
  br i1 %41, label %42, label %47

42:                                               ; preds = %29
  %43 = load i32, ptr %8, align 4, !tbaa !9
  %44 = add nsw i32 %43, 1
  %45 = ashr i32 %44, 1
  %46 = sub nsw i32 0, %45
  store i32 %46, ptr %8, align 4, !tbaa !9
  br label %50

47:                                               ; preds = %29
  %48 = load i32, ptr %8, align 4, !tbaa !9
  %49 = ashr i32 %48, 1
  store i32 %49, ptr %8, align 4, !tbaa !9
  br label %50

50:                                               ; preds = %47, %42
  %51 = load ptr, ptr %5, align 8, !tbaa !69
  %52 = getelementptr inbounds nuw %struct.JLSState, ptr %51, i32 0, i32 13
  %53 = load i32, ptr %52, align 4, !tbaa !70
  %54 = icmp ne i32 %53, 0
  br i1 %54, label %78, label %55

55:                                               ; preds = %50
  %56 = load i32, ptr %7, align 4, !tbaa !9
  %57 = icmp ne i32 %56, 0
  br i1 %57, label %78, label %58

58:                                               ; preds = %55
  %59 = load ptr, ptr %5, align 8, !tbaa !69
  %60 = getelementptr inbounds nuw %struct.JLSState, ptr %59, i32 0, i32 4
  %61 = load i32, ptr %6, align 4, !tbaa !9
  %62 = sext i32 %61 to i64
  %63 = getelementptr inbounds [367 x i32], ptr %60, i64 0, i64 %62
  %64 = load i32, ptr %63, align 4, !tbaa !9
  %65 = mul nsw i32 2, %64
  %66 = load ptr, ptr %5, align 8, !tbaa !69
  %67 = getelementptr inbounds nuw %struct.JLSState, ptr %66, i32 0, i32 6
  %68 = load i32, ptr %6, align 4, !tbaa !9
  %69 = sext i32 %68 to i64
  %70 = getelementptr inbounds [367 x i32], ptr %67, i64 0, i64 %69
  %71 = load i32, ptr %70, align 4, !tbaa !9
  %72 = sub nsw i32 0, %71
  %73 = icmp sle i32 %65, %72
  br i1 %73, label %74, label %78

74:                                               ; preds = %58
  %75 = load i32, ptr %8, align 4, !tbaa !9
  %76 = add nsw i32 %75, 1
  %77 = sub nsw i32 0, %76
  store i32 %77, ptr %8, align 4, !tbaa !9
  br label %78

78:                                               ; preds = %74, %58, %55, %50
  %79 = load ptr, ptr %5, align 8, !tbaa !69
  %80 = load i32, ptr %6, align 4, !tbaa !9
  %81 = load i32, ptr %8, align 4, !tbaa !9
  %82 = call i32 @ff_jpegls_update_state_regular(ptr noundef %79, i32 noundef %80, i32 noundef %81)
  store i32 %82, ptr %8, align 4, !tbaa !9
  %83 = load i32, ptr %8, align 4, !tbaa !9
  call void @llvm.lifetime.end.p0(i64 4, ptr %8) #8
  call void @llvm.lifetime.end.p0(i64 4, ptr %7) #8
  ret i32 %83
}