; Function Attrs: inlinehint nofree norecurse nosync nounwind memory(read, argmem: readwrite, inaccessiblemem: none) uwtable
define internal fastcc i32 @ls_get_code_regular(ptr noundef captures(none) %0, ptr noundef nonnull captures(none) %1, i32 noundef range(i32 0, -2147483648) %2) unnamed_addr #6 {
  %4 = getelementptr inbounds nuw i8, ptr %1, i64 4408
  %5 = zext nneg i32 %2 to i64
  %6 = getelementptr inbounds nuw [367 x i32], ptr %4, i64 0, i64 %5
  %7 = load i32, ptr %6, align 4, !tbaa !59
  %8 = getelementptr inbounds nuw i8, ptr %1, i64 12
  %9 = getelementptr inbounds nuw [367 x i32], ptr %8, i64 0, i64 %5
  %10 = load i32, ptr %9, align 4, !tbaa !59
  br label %11

11:                                               ; preds = %11, %3
  %.024 = phi i32 [ 0, %3 ], [ %14, %11 ]
  %12 = shl i32 %7, %.024
  %13 = icmp ult i32 %12, %10
  %14 = add nuw nsw i32 %.024, 1
  br i1 %13, label %11, label %15, !llvm.loop !104

15:                                               ; preds = %11
  %16 = getelementptr inbounds nuw i8, ptr %1, i64 5876
  %17 = load i32, ptr %16, align 4, !tbaa !75
  %18 = getelementptr inbounds nuw i8, ptr %1, i64 5888
  %19 = load i32, ptr %18, align 4, !tbaa !76
  %20 = tail call fastcc i32 @get_ur_golomb_jpegls(ptr noundef %0, i32 noundef %.024, i32 noundef %17, i32 noundef %19)
  %21 = and i32 %20, 1
  %.not = icmp eq i32 %21, 0
  %22 = add nsw i32 %20, 1
  %23 = ashr exact i32 %22, 1
  %24 = sub nsw i32 0, %23
  %25 = ashr exact i32 %20, 1
  %.0 = select i1 %.not, i32 %25, i32 %24
  %26 = getelementptr inbounds nuw i8, ptr %1, i64 5900
  %27 = load i32, ptr %26, align 4, !tbaa !64
  %28 = or i32 %27, %.024
  %or.cond.not = icmp eq i32 %28, 0
  br i1 %or.cond.not, label %29, label %37

29:                                               ; preds = %15
  %30 = getelementptr inbounds nuw i8, ptr %1, i64 1480
  %31 = getelementptr inbounds nuw [367 x i32], ptr %30, i64 0, i64 %5
  %32 = load i32, ptr %31, align 4, !tbaa !59
  %33 = shl nsw i32 %32, 1
  %34 = load i32, ptr %6, align 4, !tbaa !59
  %35 = sub nsw i32 0, %34
  %.not25 = icmp sle i32 %33, %35
  %36 = sext i1 %.not25 to i32
  %spec.select = xor i32 %.0, %36
  br label %37

37:                                               ; preds = %29, %15
  %.1 = phi i32 [ %.0, %15 ], [ %spec.select, %29 ]
  %38 = tail call i32 @llvm.abs.i32(i32 %.1, i1 true)
  %39 = icmp samesign ugt i32 %38, 65535
  br i1 %39, label %ff_jpegls_update_state_regular.exit, label %40

40:                                               ; preds = %37
  %41 = load i32, ptr %9, align 4, !tbaa !59
  %42 = sub nsw i32 2147483647, %41
  %43 = icmp samesign ugt i32 %38, %42
  br i1 %43, label %ff_jpegls_update_state_regular.exit, label %44

44:                                               ; preds = %40
  %45 = add nsw i32 %41, %38
  store i32 %45, ptr %9, align 4, !tbaa !59
  %46 = getelementptr inbounds nuw i8, ptr %1, i64 5904
  %47 = load i32, ptr %46, align 4, !tbaa !102
  %48 = mul nsw i32 %47, %.1
  %49 = getelementptr inbounds nuw i8, ptr %1, i64 1480
  %50 = getelementptr inbounds nuw [367 x i32], ptr %49, i64 0, i64 %5
  %51 = load i32, ptr %50, align 4, !tbaa !59
  %52 = add nsw i32 %51, %48
  store i32 %52, ptr %50, align 4, !tbaa !59
  %53 = load i32, ptr %6, align 4, !tbaa !59
  %54 = getelementptr inbounds nuw i8, ptr %1, i64 5880
  %55 = load i32, ptr %54, align 4, !tbaa !72
  %56 = icmp eq i32 %53, %55
  br i1 %56, label %57, label %ff_jpegls_downscale_state.exit.i

57:                                               ; preds = %44
  %58 = ashr i32 %45, 1
  store i32 %58, ptr %9, align 4, !tbaa !59
  %59 = ashr i32 %52, 1
  store i32 %59, ptr %50, align 4, !tbaa !59
  %60 = ashr i32 %53, 1
  br label %ff_jpegls_downscale_state.exit.i

ff_jpegls_downscale_state.exit.i:                 ; preds = %57, %44
  %61 = phi i32 [ %59, %57 ], [ %52, %44 ]
  %62 = phi i32 [ %60, %57 ], [ %53, %44 ]
  %63 = add nsw i32 %62, 1
  store i32 %63, ptr %6, align 4, !tbaa !59
  %64 = xor i32 %62, -1
  %.not.i = icmp sgt i32 %61, %64
  br i1 %.not.i, label %74, label %65

65:                                               ; preds = %ff_jpegls_downscale_state.exit.i
  %66 = add nsw i32 %63, %61
  %67 = sub nsw i32 0, %62
  %..i = tail call i32 @llvm.smax.i32(i32 %66, i32 %67)
  store i32 %..i, ptr %50, align 4, !tbaa !59
  %68 = getelementptr inbounds nuw i8, ptr %1, i64 2948
  %69 = getelementptr inbounds nuw [365 x i32], ptr %68, i64 0, i64 %5
  %70 = load i32, ptr %69, align 4, !tbaa !59
  %71 = icmp sgt i32 %70, -128
  br i1 %71, label %72, label %ff_jpegls_update_state_regular.exit

72:                                               ; preds = %65
  %73 = add nsw i32 %70, -1
  store i32 %73, ptr %69, align 4, !tbaa !59
  br label %ff_jpegls_update_state_regular.exit

74:                                               ; preds = %ff_jpegls_downscale_state.exit.i
  %75 = icmp sgt i32 %61, 0
  br i1 %75, label %76, label %ff_jpegls_update_state_regular.exit

76:                                               ; preds = %74
  %77 = sub nsw i32 %61, %63
  %spec.select.i = tail call i32 @llvm.smin.i32(i32 %77, i32 0)
  store i32 %spec.select.i, ptr %50, align 4, !tbaa !59
  %78 = getelementptr inbounds nuw i8, ptr %1, i64 2948
  %79 = getelementptr inbounds nuw [365 x i32], ptr %78, i64 0, i64 %5
  %80 = load i32, ptr %79, align 4, !tbaa !59
  %81 = icmp slt i32 %80, 127
  br i1 %81, label %82, label %ff_jpegls_update_state_regular.exit

82:                                               ; preds = %76
  %83 = add nsw i32 %80, 1
  store i32 %83, ptr %79, align 4, !tbaa !59
  br label %ff_jpegls_update_state_regular.exit

ff_jpegls_update_state_regular.exit:              ; preds = %37, %40, %65, %72, %74, %76, %82
  %.0.i = phi i32 [ -65536, %40 ], [ -65536, %37 ], [ %48, %74 ], [ %48, %82 ], [ %48, %76 ], [ %48, %65 ], [ %48, %72 ]
  ret i32 %.0.i
}